target datalayout = "e-m:e-p270:32:32-p271:32:32-p272:64:64-i64:64-i128:128-f80:128-n8:16:32:64-S128"
target triple = "x86_64-unknown-linux-gnu"

%"struct.node::AssertionInfo" = type { ptr, ptr, ptr }
%"class.v8::Local" = type { %"class.v8::LocalBase" }
%"class.v8::LocalBase" = type { %"class.v8::IndirectHandleBase" }
%"class.v8::IndirectHandleBase" = type { ptr }
%"class.v8::Local.321" = type { %"class.v8::LocalBase.322" }
%"class.v8::LocalBase.322" = type { %"class.v8::IndirectHandleBase" }

@_ZZN4node6crypto16GetCryptoJobModeEN2v85LocalINS1_5ValueEEEE4args = internal constant %"struct.node::AssertionInfo" { ptr @.str.89, ptr @.str.90, ptr @.str.91 }, align 8
@_ZZN4node6crypto16GetCryptoJobModeEN2v85LocalINS1_5ValueEEEE4args_0 = internal constant %"struct.node::AssertionInfo" { ptr @.str.92, ptr @.str.93, ptr @.str.91 }, align 8

; Function Attrs: mustprogress nounwind uwtable
define dso_local noundef i32 @_ZN4node6crypto16GetCryptoJobModeEN2v85LocalINS1_5ValueEEE(ptr %args.coerce) #4 {
entry:
  %slot.addr.i41 = alloca ptr, align 8
  %this.addr.i.i37 = alloca ptr, align 8
  %this.addr.i38 = alloca ptr, align 8
  %this.addr.i34 = alloca ptr, align 8
  %other.addr.i35 = alloca ptr, align 8
  %this.addr.i32 = alloca ptr, align 8
  %other.addr.i = alloca ptr, align 8
  %retval.i31 = alloca %"class.v8::Local.321", align 8
  %that.i = alloca %"class.v8::Local", align 8
  %ref.tmp.i = alloca %"class.v8::LocalBase.322", align 8
  %slot.addr.i = alloca ptr, align 8
  %this.addr.i.i = alloca ptr, align 8
  %this.addr.i29 = alloca ptr, align 8
  %this.addr.i26 = alloca ptr, align 8
  %retval.i = alloca %"class.v8::Local.321", align 8
  %this.addr.i23 = alloca ptr, align 8
  %agg.tmp.i = alloca %"class.v8::Local", align 8
  %this.addr.i = alloca ptr, align 8
  %args = alloca %"class.v8::Local", align 8
  %mode = alloca i32, align 4
  %ref.tmp = alloca %"class.v8::Local.321", align 8
  %coerce.dive = getelementptr inbounds %"class.v8::Local", ptr %args, i32 0, i32 0
  %coerce.dive1 = getelementptr inbounds %"class.v8::LocalBase", ptr %coerce.dive, i32 0, i32 0
  %coerce.dive2 = getelementptr inbounds %"class.v8::IndirectHandleBase", ptr %coerce.dive1, i32 0, i32 0
  store ptr %args.coerce, ptr %coerce.dive2, align 8
  br label %do.body

do.body:                                          ; preds = %entry
  store ptr %args, ptr %this.addr.i, align 8
  %this1.i = load ptr, ptr %this.addr.i, align 8
  store ptr %this1.i, ptr %this.addr.i29, align 8
  %this1.i30 = load ptr, ptr %this.addr.i29, align 8
  store ptr %this1.i30, ptr %this.addr.i.i, align 8
  %this1.i.i = load ptr, ptr %this.addr.i.i, align 8
  %0 = load ptr, ptr %this1.i.i, align 8
  store ptr %0, ptr %slot.addr.i, align 8
  %1 = load ptr, ptr %slot.addr.i, align 8
  %call3 = call noundef zeroext i1 @_ZNK2v85Value8IsUint32Ev(ptr noundef nonnull align 1 dereferenceable(1) %1)
  %lnot = xor i1 %call3, true
  %lnot4 = xor i1 %lnot, true
  %lnot5 = xor i1 %lnot4, true
  br i1 %lnot5, label %if.then, label %if.end

if.then:                                          ; preds = %do.body
  br label %do.body6

do.body6:                                         ; preds = %if.then
  call void @_ZN4node6AssertERKNS_13AssertionInfoE(ptr noundef nonnull align 8 dereferenceable(24) @_ZZN4node6crypto16GetCryptoJobModeEN2v85LocalINS1_5ValueEEEE4args)
  call void @abort() #15
  unreachable

do.end:                                           ; No predecessors!
  br label %if.end

if.end:                                           ; preds = %do.end, %do.body
  br label %do.end7

do.end7:                                          ; preds = %if.end
  store ptr %args, ptr %this.addr.i23, align 8
  %this1.i24 = load ptr, ptr %this.addr.i23, align 8
  call void @llvm.memcpy.p0.p0.i64(ptr align 8 %agg.tmp.i, ptr align 8 %this1.i24, i64 8, i1 false)
  %2 = load ptr, ptr %agg.tmp.i, align 8
  store ptr %2, ptr %that.i, align 8
  store ptr %ref.tmp.i, ptr %this.addr.i32, align 8
  store ptr %that.i, ptr %other.addr.i, align 8
  %this1.i33 = load ptr, ptr %this.addr.i32, align 8
  %3 = load ptr, ptr %other.addr.i, align 8
  call void @llvm.memcpy.p0.p0.i64(ptr align 8 %this1.i33, ptr align 8 %3, i64 8, i1 false)
  store ptr %retval.i31, ptr %this.addr.i34, align 8
  store ptr %ref.tmp.i, ptr %other.addr.i35, align 8
  %this1.i36 = load ptr, ptr %this.addr.i34, align 8
  %4 = load ptr, ptr %other.addr.i35, align 8
  call void @llvm.memcpy.p0.p0.i64(ptr align 8 %this1.i36, ptr align 8 %4, i64 8, i1 false)
  %5 = load ptr, ptr %retval.i31, align 8
  store ptr %5, ptr %retval.i, align 8
  %6 = load ptr, ptr %retval.i, align 8
  %coerce.dive9 = getelementptr inbounds %"class.v8::Local.321", ptr %ref.tmp, i32 0, i32 0
  %coerce.dive10 = getelementptr inbounds %"class.v8::LocalBase.322", ptr %coerce.dive9, i32 0, i32 0
  %coerce.dive11 = getelementptr inbounds %"class.v8::IndirectHandleBase", ptr %coerce.dive10, i32 0, i32 0
  store ptr %6, ptr %coerce.dive11, align 8
  store ptr %ref.tmp, ptr %this.addr.i26, align 8
  %this1.i27 = load ptr, ptr %this.addr.i26, align 8
  store ptr %this1.i27, ptr %this.addr.i38, align 8
  %this1.i39 = load ptr, ptr %this.addr.i38, align 8
  store ptr %this1.i39, ptr %this.addr.i.i37, align 8
  %this1.i.i40 = load ptr, ptr %this.addr.i.i37, align 8
  %7 = load ptr, ptr %this1.i.i40, align 8
  store ptr %7, ptr %slot.addr.i41, align 8
  %8 = load ptr, ptr %slot.addr.i41, align 8
  %call13 = call noundef i32 @_ZNK2v86Uint325ValueEv(ptr noundef nonnull align 1 dereferenceable(1) %8)
  store i32 %call13, ptr %mode, align 4
  br label %do.body14

do.body14:                                        ; preds = %do.end7
  %9 = load i32, ptr %mode, align 4
  %cmp = icmp ule i32 %9, 1
  %lnot15 = xor i1 %cmp, true
  %lnot16 = xor i1 %lnot15, true
  %lnot17 = xor i1 %lnot16, true
  br i1 %lnot17, label %if.then18, label %if.end21

if.then18:                                        ; preds = %do.body14
  br label %do.body19

do.body19:                                        ; preds = %if.then18
  call void @_ZN4node6AssertERKNS_13AssertionInfoE(ptr noundef nonnull align 8 dereferenceable(24) @_ZZN4node6crypto16GetCryptoJobModeEN2v85LocalINS1_5ValueEEEE4args_0)
  call void @abort() #15
  unreachable

do.end20:                                         ; No predecessors!
  br label %if.end21

if.end21:                                         ; preds = %do.end20, %do.body14
  br label %do.end22

do.end22:                                         ; preds = %if.end21
  %10 = load i32, ptr %mode, align 4
  ret i32 %10
}