; Function Attrs: mustprogress nounwind uwtable
define dso_local noundef i32 @_ZN4node6crypto16GetCryptoJobModeEN2v85LocalINS1_5ValueEEE(ptr nonnull %args.coerce) local_unnamed_addr #4 {
entry:
  %call3 = tail call noundef zeroext i1 @_ZNK2v85Value8IsUint32Ev(ptr noundef nonnull align 1 dereferenceable(1) %args.coerce) #25
  br i1 %call3, label %do.end7, label %do.body6

do.body6:                                         ; preds = %entry
  tail call void @_ZN4node6AssertERKNS_13AssertionInfoE(ptr noundef nonnull align 8 dereferenceable(24) @_ZZN4node6crypto16GetCryptoJobModeEN2v85LocalINS1_5ValueEEEE4args) #25
  tail call void @abort() #27
  unreachable

do.end7:                                          ; preds = %entry
  %call13 = tail call noundef i32 @_ZNK2v86Uint325ValueEv(ptr noundef nonnull align 1 dereferenceable(1) %args.coerce) #25
  %cmp = icmp ugt i32 %call13, 1
  br i1 %cmp, label %do.body19, label %do.end22

do.body19:                                        ; preds = %do.end7
  tail call void @_ZN4node6AssertERKNS_13AssertionInfoE(ptr noundef nonnull align 8 dereferenceable(24) @_ZZN4node6crypto16GetCryptoJobModeEN2v85LocalINS1_5ValueEEEE4args_0) #25
  tail call void @abort() #27
  unreachable

do.end22:                                         ; preds = %do.end7
  ret i32 %call13
}